target datalayout = "e-m:e-p270:32:32-p271:32:32-p272:64:64-i64:64-i128:128-f80:128-n8:16:32:64-S128"
target triple = "x86_64-unknown-linux-gnu"

%struct.OptsVisitor = type { %struct.Visitor, ptr, i32, ptr, i32, ptr, %union.anon, %union.anon, ptr }
%struct.Visitor = type { ptr, ptr, ptr, ptr, ptr, ptr, ptr, ptr, ptr, ptr, ptr, ptr, ptr, ptr, ptr, ptr, ptr, ptr, ptr, ptr, i32, %struct.CompatPolicy, ptr, ptr }
%struct.CompatPolicy = type { i8, i32, i8, i32, i8, i32, i8, i32 }
%union.anon = type { i64 }
%struct.QTailQLink = type { ptr, ptr }
%struct.QemuOpt = type { ptr, ptr, ptr, %union.anon.2, ptr, %union.anon.3 }
%union.anon.2 = type { i64 }
%union.anon.3 = type { %struct.QTailQLink }
%struct.GenericList = type { ptr, [0 x i8] }

; Function Attrs: nounwind sspstrong uwtable
define internal ptr @to_ov(ptr noundef %v) #0 {
entry:
  %v.addr = alloca ptr, align 8
  %__mptr = alloca ptr, align 8
  %tmp = alloca ptr, align 8
  store ptr %v, ptr %v.addr, align 8
  %0 = load ptr, ptr %v.addr, align 8
  store ptr %0, ptr %__mptr, align 8
  %1 = load ptr, ptr %__mptr, align 8
  %add.ptr = getelementptr i8, ptr %1, i64 0
  store ptr %add.ptr, ptr %tmp, align 8
  %2 = load ptr, ptr %tmp, align 8
  ret ptr %2
}

; Function Attrs: nounwind sspstrong uwtable
define internal ptr @opts_next_list(ptr noundef %v, ptr noundef %tail, i64 noundef %size) #0 {
entry:
  %retval = alloca ptr, align 8
  %v.addr = alloca ptr, align 8
  %tail.addr = alloca ptr, align 8
  %size.addr = alloca i64, align 8
  %ov = alloca ptr, align 8
  %opt = alloca ptr, align 8
  store ptr %v, ptr %v.addr, align 8
  store ptr %tail, ptr %tail.addr, align 8
  store i64 %size, ptr %size.addr, align 8
  %0 = load ptr, ptr %v.addr, align 8
  %call = call ptr @to_ov(ptr noundef %0)
  store ptr %call, ptr %ov, align 8
  %1 = load ptr, ptr %ov, align 8
  %list_mode = getelementptr inbounds %struct.OptsVisitor, ptr %1, i32 0, i32 4
  %2 = load i32, ptr %list_mode, align 8
  switch i32 %2, label %sw.default [
    i32 4, label %sw.bb
    i32 2, label %sw.bb1
    i32 3, label %sw.bb1
    i32 1, label %sw.bb15
  ]

sw.bb:                                            ; preds = %entry
  store ptr null, ptr %retval, align 8
  br label %return

sw.bb1:                                           ; preds = %entry, %entry
  %3 = load ptr, ptr %ov, align 8
  %list_mode2 = getelementptr inbounds %struct.OptsVisitor, ptr %3, i32 0, i32 4
  %4 = load i32, ptr %list_mode2, align 8
  %cmp = icmp eq i32 %4, 2
  br i1 %cmp, label %if.then, label %if.else

if.then:                                          ; preds = %sw.bb1
  %5 = load ptr, ptr %ov, align 8
  %range_next = getelementptr inbounds %struct.OptsVisitor, ptr %5, i32 0, i32 6
  %6 = load i64, ptr %range_next, align 8
  %7 = load ptr, ptr %ov, align 8
  %range_limit = getelementptr inbounds %struct.OptsVisitor, ptr %7, i32 0, i32 7
  %8 = load i64, ptr %range_limit, align 8
  %cmp3 = icmp slt i64 %6, %8
  br i1 %cmp3, label %if.then4, label %if.end

if.then4:                                         ; preds = %if.then
  %9 = load ptr, ptr %ov, align 8
  %range_next5 = getelementptr inbounds %struct.OptsVisitor, ptr %9, i32 0, i32 6
  %10 = load i64, ptr %range_next5, align 8
  %inc = add i64 %10, 1
  store i64 %inc, ptr %range_next5, align 8
  br label %sw.epilog

if.end:                                           ; preds = %if.then
  br label %if.end13

if.else:                                          ; preds = %sw.bb1
  %11 = load ptr, ptr %ov, align 8
  %range_next6 = getelementptr inbounds %struct.OptsVisitor, ptr %11, i32 0, i32 6
  %12 = load i64, ptr %range_next6, align 8
  %13 = load ptr, ptr %ov, align 8
  %range_limit7 = getelementptr inbounds %struct.OptsVisitor, ptr %13, i32 0, i32 7
  %14 = load i64, ptr %range_limit7, align 8
  %cmp8 = icmp ult i64 %12, %14
  br i1 %cmp8, label %if.then9, label %if.end12

if.then9:                                         ; preds = %if.else
  %15 = load ptr, ptr %ov, align 8
  %range_next10 = getelementptr inbounds %struct.OptsVisitor, ptr %15, i32 0, i32 6
  %16 = load i64, ptr %range_next10, align 8
  %inc11 = add i64 %16, 1
  store i64 %inc11, ptr %range_next10, align 8
  br label %sw.epilog

if.end12:                                         ; preds = %if.else
  br label %if.end13

if.end13:                                         ; preds = %if.end12, %if.end
  %17 = load ptr, ptr %ov, align 8
  %list_mode14 = getelementptr inbounds %struct.OptsVisitor, ptr %17, i32 0, i32 4
  store i32 1, ptr %list_mode14, align 8
  br label %sw.bb15

sw.bb15:                                          ; preds = %if.end13, %entry
  %18 = load ptr, ptr %ov, align 8
  %repeated_opts = getelementptr inbounds %struct.OptsVisitor, ptr %18, i32 0, i32 5
  %19 = load ptr, ptr %repeated_opts, align 8
  %call16 = call ptr @g_queue_pop_head(ptr noundef %19)
  store ptr %call16, ptr %opt, align 8
  %20 = load ptr, ptr %ov, align 8
  %repeated_opts17 = getelementptr inbounds %struct.OptsVisitor, ptr %20, i32 0, i32 5
  %21 = load ptr, ptr %repeated_opts17, align 8
  %call18 = call i32 @g_queue_is_empty(ptr noundef %21)
  %tobool = icmp ne i32 %call18, 0
  br i1 %tobool, label %if.then19, label %if.end23

if.then19:                                        ; preds = %sw.bb15
  %22 = load ptr, ptr %ov, align 8
  %unprocessed_opts = getelementptr inbounds %struct.OptsVisitor, ptr %22, i32 0, i32 3
  %23 = load ptr, ptr %unprocessed_opts, align 8
  %24 = load ptr, ptr %opt, align 8
  %name = getelementptr inbounds %struct.QemuOpt, ptr %24, i32 0, i32 0
  %25 = load ptr, ptr %name, align 8
  %call20 = call i32 @g_hash_table_remove(ptr noundef %23, ptr noundef %25)
  %26 = load ptr, ptr %ov, align 8
  %repeated_opts21 = getelementptr inbounds %struct.OptsVisitor, ptr %26, i32 0, i32 5
  store ptr null, ptr %repeated_opts21, align 8
  %27 = load ptr, ptr %ov, align 8
  %list_mode22 = getelementptr inbounds %struct.OptsVisitor, ptr %27, i32 0, i32 4
  store i32 4, ptr %list_mode22, align 8
  store ptr null, ptr %retval, align 8
  br label %return

if.end23:                                         ; preds = %sw.bb15
  br label %sw.epilog

sw.default:                                       ; preds = %entry
  call void @abort() #7
  unreachable

sw.epilog:                                        ; preds = %if.end23, %if.then9, %if.then4
  %28 = load i64, ptr %size.addr, align 8
  %call24 = call noalias ptr @g_malloc0(i64 noundef %28) #8
  %29 = load ptr, ptr %tail.addr, align 8
  %next = getelementptr inbounds %struct.GenericList, ptr %29, i32 0, i32 0
  store ptr %call24, ptr %next, align 8
  %30 = load ptr, ptr %tail.addr, align 8
  %next25 = getelementptr inbounds %struct.GenericList, ptr %30, i32 0, i32 0
  %31 = load ptr, ptr %next25, align 8
  store ptr %31, ptr %retval, align 8
  br label %return

return:                                           ; preds = %sw.epilog, %if.then19, %sw.bb
  %32 = load ptr, ptr %retval, align 8
  ret ptr %32
}