; Function Attrs: nounwind sspstrong uwtable
define internal ptr @opts_next_list(ptr noundef captures(none) %v, ptr noundef writeonly captures(none) %tail, i64 noundef %size) #0 {
entry:
  %list_mode = getelementptr inbounds nuw i8, ptr %v, i64 240
  %0 = load i32, ptr %list_mode, align 8
  switch i32 %0, label %sw.default [
    i32 4, label %return
    i32 1, label %sw.bb15
    i32 2, label %if.then
    i32 3, label %if.else
  ]

if.then:                                          ; preds = %entry
  %range_next = getelementptr inbounds nuw i8, ptr %v, i64 256
  %1 = load i64, ptr %range_next, align 8
  %range_limit = getelementptr inbounds nuw i8, ptr %v, i64 264
  %2 = load i64, ptr %range_limit, align 8
  %cmp3 = icmp slt i64 %1, %2
  br i1 %cmp3, label %if.then4, label %if.end13

if.then4:                                         ; preds = %if.then
  %inc = add nsw i64 %1, 1
  store i64 %inc, ptr %range_next, align 8
  br label %sw.epilog

if.else:                                          ; preds = %entry
  %range_next6 = getelementptr inbounds nuw i8, ptr %v, i64 256
  %3 = load i64, ptr %range_next6, align 8
  %range_limit7 = getelementptr inbounds nuw i8, ptr %v, i64 264
  %4 = load i64, ptr %range_limit7, align 8
  %cmp8 = icmp ult i64 %3, %4
  br i1 %cmp8, label %if.then9, label %if.end13

if.then9:                                         ; preds = %if.else
  %inc11 = add nuw i64 %3, 1
  store i64 %inc11, ptr %range_next6, align 8
  br label %sw.epilog

if.end13:                                         ; preds = %if.else, %if.then
  store i32 1, ptr %list_mode, align 8
  br label %sw.bb15

sw.bb15:                                          ; preds = %entry, %if.end13
  %repeated_opts = getelementptr inbounds nuw i8, ptr %v, i64 248
  %5 = load ptr, ptr %repeated_opts, align 8
  %call16 = tail call ptr @g_queue_pop_head(ptr noundef %5) #10
  %6 = load ptr, ptr %repeated_opts, align 8
  %call18 = tail call i32 @g_queue_is_empty(ptr noundef %6) #10
  %tobool.not = icmp eq i32 %call18, 0
  br i1 %tobool.not, label %sw.epilog, label %if.then19

if.then19:                                        ; preds = %sw.bb15
  %unprocessed_opts = getelementptr inbounds nuw i8, ptr %v, i64 232
  %7 = load ptr, ptr %unprocessed_opts, align 8
  %8 = load ptr, ptr %call16, align 8
  %call20 = tail call i32 @g_hash_table_remove(ptr noundef %7, ptr noundef %8) #10
  store ptr null, ptr %repeated_opts, align 8
  store i32 4, ptr %list_mode, align 8
  br label %return

sw.default:                                       ; preds = %entry
  tail call void @abort() #8
  unreachable

sw.epilog:                                        ; preds = %sw.bb15, %if.then9, %if.then4
  %call24 = tail call noalias ptr @g_malloc0(i64 noundef %size) #9
  store ptr %call24, ptr %tail, align 8
  br label %return

return:                                           ; preds = %entry, %sw.epilog, %if.then19
  %retval.0 = phi ptr [ null, %if.then19 ], [ %call24, %sw.epilog ], [ null, %entry ]
  ret ptr %retval.0
}